target datalayout = "e-m:e-p270:32:32-p271:32:32-p272:64:64-i64:64-i128:128-f80:128-n8:16:32:64-S128"
target triple = "x86_64-pc-linux-gnu"

%struct.ForEachState = type { ptr, i32 }
%struct.BitmapOr = type { %struct.Plan, i8, ptr }
%struct.Plan = type { i32, i32, double, double, double, i32, i8, i8, i8, i32, ptr, ptr, ptr, ptr, ptr, ptr, ptr }
%struct.BitmapOrState = type { %struct.PlanState, ptr, i32 }
%struct.PlanState = type { i32, ptr, ptr, ptr, ptr, ptr, ptr, ptr, ptr, ptr, ptr, ptr, ptr, ptr, ptr, ptr, ptr, ptr, i8, ptr, ptr, ptr, ptr, ptr, i8, i8, i8, i8, i8, i8, i8, i8 }
%struct.List = type { i32, i32, i32, ptr, [0 x %union.ListCell] }
%union.ListCell = type { ptr }
%struct.Node = type { i32 }

; Function Attrs: inlinehint nounwind uwtable
define internal i32 @list_length(ptr noundef %0) #2 {
  %2 = alloca ptr, align 8
  store ptr %0, ptr %2, align 8
  %3 = load ptr, ptr %2, align 8
  %4 = icmp ne ptr %3, null
  br i1 %4, label %5, label %9

5:                                                ; preds = %1
  %6 = load ptr, ptr %2, align 8
  %7 = getelementptr inbounds nuw %struct.List, ptr %6, i32 0, i32 1
  %8 = load i32, ptr %7, align 4
  br label %10

9:                                                ; preds = %1
  br label %10

10:                                               ; preds = %9, %5
  %11 = phi i32 [ %8, %5 ], [ 0, %9 ]
  ret i32 %11
}

; Function Attrs: inlinehint nounwind uwtable
define internal ptr @newNode(i64 noundef %0, i32 noundef %1) #2 {
  %3 = alloca i64, align 8
  %4 = alloca i32, align 4
  %5 = alloca ptr, align 8
  store i64 %0, ptr %3, align 8
  store i32 %1, ptr %4, align 4
  call void @llvm.lifetime.start.p0(i64 8, ptr %5) #6
  %6 = load i64, ptr %3, align 8
  %7 = call ptr @palloc0(i64 noundef %6)
  store ptr %7, ptr %5, align 8
  %8 = load i32, ptr %4, align 4
  %9 = load ptr, ptr %5, align 8
  %10 = getelementptr inbounds nuw %struct.Node, ptr %9, i32 0, i32 0
  store i32 %8, ptr %10, align 4
  %11 = load ptr, ptr %5, align 8
  call void @llvm.lifetime.end.p0(i64 8, ptr %5) #6
  ret ptr %11
}

; Function Attrs: nounwind uwtable
define dso_local ptr @ExecInitBitmapOr(ptr noundef %0, ptr noundef %1, i32 noundef %2) #0 {
  %4 = alloca ptr, align 8
  %5 = alloca ptr, align 8
  %6 = alloca i32, align 4
  %7 = alloca ptr, align 8
  %8 = alloca ptr, align 8
  %9 = alloca i32, align 4
  %10 = alloca i32, align 4
  %11 = alloca ptr, align 8
  %12 = alloca ptr, align 8
  %13 = alloca %struct.ForEachState, align 8
  store ptr %0, ptr %4, align 8
  store ptr %1, ptr %5, align 8
  store i32 %2, ptr %6, align 4
  call void @llvm.lifetime.start.p0(i64 8, ptr %7) #6
  %14 = call ptr @newNode(i64 noundef 216, i32 noundef 400)
  store ptr %14, ptr %7, align 8
  call void @llvm.lifetime.start.p0(i64 8, ptr %8) #6
  call void @llvm.lifetime.start.p0(i64 4, ptr %9) #6
  call void @llvm.lifetime.start.p0(i64 4, ptr %10) #6
  call void @llvm.lifetime.start.p0(i64 8, ptr %11) #6
  call void @llvm.lifetime.start.p0(i64 8, ptr %12) #6
  %15 = load ptr, ptr %4, align 8
  %16 = getelementptr inbounds nuw %struct.BitmapOr, ptr %15, i32 0, i32 2
  %17 = load ptr, ptr %16, align 8
  %18 = call i32 @list_length(ptr noundef %17)
  store i32 %18, ptr %9, align 4
  %19 = load i32, ptr %9, align 4
  %20 = sext i32 %19 to i64
  %21 = mul i64 %20, 8
  %22 = call ptr @palloc0(i64 noundef %21)
  store ptr %22, ptr %8, align 8
  %23 = load ptr, ptr %4, align 8
  %24 = load ptr, ptr %7, align 8
  %25 = getelementptr inbounds nuw %struct.BitmapOrState, ptr %24, i32 0, i32 0
  %26 = getelementptr inbounds nuw %struct.PlanState, ptr %25, i32 0, i32 1
  store ptr %23, ptr %26, align 8
  %27 = load ptr, ptr %5, align 8
  %28 = load ptr, ptr %7, align 8
  %29 = getelementptr inbounds nuw %struct.BitmapOrState, ptr %28, i32 0, i32 0
  %30 = getelementptr inbounds nuw %struct.PlanState, ptr %29, i32 0, i32 2
  store ptr %27, ptr %30, align 8
  %31 = load ptr, ptr %7, align 8
  %32 = getelementptr inbounds nuw %struct.BitmapOrState, ptr %31, i32 0, i32 0
  %33 = getelementptr inbounds nuw %struct.PlanState, ptr %32, i32 0, i32 3
  store ptr @ExecBitmapOr, ptr %33, align 8
  %34 = load ptr, ptr %8, align 8
  %35 = load ptr, ptr %7, align 8
  %36 = getelementptr inbounds nuw %struct.BitmapOrState, ptr %35, i32 0, i32 1
  store ptr %34, ptr %36, align 8
  %37 = load i32, ptr %9, align 4
  %38 = load ptr, ptr %7, align 8
  %39 = getelementptr inbounds nuw %struct.BitmapOrState, ptr %38, i32 0, i32 2
  store i32 %37, ptr %39, align 8
  store i32 0, ptr %10, align 4
  call void @llvm.lifetime.start.p0(i64 16, ptr %13) #6
  %40 = getelementptr inbounds nuw %struct.ForEachState, ptr %13, i32 0, i32 0
  %41 = load ptr, ptr %4, align 8
  %42 = getelementptr inbounds nuw %struct.BitmapOr, ptr %41, i32 0, i32 2
  %43 = load ptr, ptr %42, align 8
  store ptr %43, ptr %40, align 8
  %44 = getelementptr inbounds nuw %struct.ForEachState, ptr %13, i32 0, i32 1
  store i32 0, ptr %44, align 8
  %45 = getelementptr i8, ptr %13, i64 12
  call void @llvm.memset.p0.i64(ptr align 4 %45, i8 0, i64 4, i1 false)
  br label %46

46:                                               ; preds = %85, %3
  %47 = getelementptr inbounds nuw %struct.ForEachState, ptr %13, i32 0, i32 0
  %48 = load ptr, ptr %47, align 8
  %49 = icmp ne ptr %48, null
  br i1 %49, label %50, label %67

50:                                               ; preds = %46
  %51 = getelementptr inbounds nuw %struct.ForEachState, ptr %13, i32 0, i32 1
  %52 = load i32, ptr %51, align 8
  %53 = getelementptr inbounds nuw %struct.ForEachState, ptr %13, i32 0, i32 0
  %54 = load ptr, ptr %53, align 8
  %55 = getelementptr inbounds nuw %struct.List, ptr %54, i32 0, i32 1
  %56 = load i32, ptr %55, align 4
  %57 = icmp slt i32 %52, %56
  br i1 %57, label %58, label %67

58:                                               ; preds = %50
  %59 = getelementptr inbounds nuw %struct.ForEachState, ptr %13, i32 0, i32 0
  %60 = load ptr, ptr %59, align 8
  %61 = getelementptr inbounds nuw %struct.List, ptr %60, i32 0, i32 3
  %62 = load ptr, ptr %61, align 8
  %63 = getelementptr inbounds nuw %struct.ForEachState, ptr %13, i32 0, i32 1
  %64 = load i32, ptr %63, align 8
  %65 = sext i32 %64 to i64
  %66 = getelementptr inbounds %union.ListCell, ptr %62, i64 %65
  store ptr %66, ptr %11, align 8
  br label %68

67:                                               ; preds = %50, %46
  store ptr null, ptr %11, align 8
  br label %68

68:                                               ; preds = %67, %58
  %69 = phi i32 [ 1, %58 ], [ 0, %67 ]
  %70 = icmp ne i32 %69, 0
  br i1 %70, label %72, label %71

71:                                               ; preds = %68
  call void @llvm.lifetime.end.p0(i64 16, ptr %13) #6
  br label %89

72:                                               ; preds = %68
  %73 = load ptr, ptr %11, align 8
  %74 = load ptr, ptr %73, align 8
  store ptr %74, ptr %12, align 8
  %75 = load ptr, ptr %12, align 8
  %76 = load ptr, ptr %5, align 8
  %77 = load i32, ptr %6, align 4
  %78 = call ptr @ExecInitNode(ptr noundef %75, ptr noundef %76, i32 noundef %77)
  %79 = load ptr, ptr %8, align 8
  %80 = load i32, ptr %10, align 4
  %81 = sext i32 %80 to i64
  %82 = getelementptr inbounds ptr, ptr %79, i64 %81
  store ptr %78, ptr %82, align 8
  %83 = load i32, ptr %10, align 4
  %84 = add i32 %83, 1
  store i32 %84, ptr %10, align 4
  br label %85

85:                                               ; preds = %72
  %86 = getelementptr inbounds nuw %struct.ForEachState, ptr %13, i32 0, i32 1
  %87 = load i32, ptr %86, align 8
  %88 = add i32 %87, 1
  store i32 %88, ptr %86, align 8
  br label %46, !llvm.loop !4

89:                                               ; preds = %71
  %90 = load ptr, ptr %7, align 8
  call void @llvm.lifetime.end.p0(i64 8, ptr %12) #6
  call void @llvm.lifetime.end.p0(i64 8, ptr %11) #6
  call void @llvm.lifetime.end.p0(i64 4, ptr %10) #6
  call void @llvm.lifetime.end.p0(i64 4, ptr %9) #6
  call void @llvm.lifetime.end.p0(i64 8, ptr %8) #6
  call void @llvm.lifetime.end.p0(i64 8, ptr %7) #6
  ret ptr %90
}